target datalayout = "e-m:e-p270:32:32-p271:32:32-p272:64:64-i64:64-i128:128-f80:128-n8:16:32:64-S128"
target triple = "x86_64-pc-linux-gnu"

%struct.qemu_plugin_u64 = type { ptr, i64 }
%struct.ClassSelector = type { ptr, ptr, i32 }
%struct.InsnClassExecCount = type { ptr, ptr, i32, i32, i32, %struct.qemu_plugin_u64 }
%struct.qemu_info_t = type { ptr, %struct.anon, i8, %union.anon }
%struct.anon = type { i32, i32 }
%union.anon = type { %struct.anon.0 }
%struct.anon.0 = type { i32, i32 }

@class_table = internal global ptr null, align 8
@class_table_sz = internal global i32 0, align 4
@.str = private unnamed_addr constant [2 x i8] c"=\00", align 1
@.str.1 = private unnamed_addr constant [7 x i8] c"inline\00", align 1
@do_inline = internal global i8 0, align 1
@stderr = external global ptr, align 8
@.str.2 = private unnamed_addr constant [37 x i8] c"boolean argument parsing failed: %s\0A\00", align 1
@.str.3 = private unnamed_addr constant [8 x i8] c"verbose\00", align 1
@verbose = internal global i8 0, align 1
@.str.4 = private unnamed_addr constant [6 x i8] c"count\00", align 1
@.str.5 = private unnamed_addr constant [27 x i8] c"option parsing failed: %s\0A\00", align 1
@insns = internal global ptr null, align 8

; Function Attrs: nounwind sspstrong uwtable
define internal void @plugin_init() #0 {
  %1 = call ptr @g_hash_table_new_full(ptr noundef null, ptr noundef @g_direct_equal, ptr noundef null, ptr noundef @free_record)
  store ptr %1, ptr @insns, align 8
  ret void
}

; Function Attrs: inlinehint nounwind sspstrong uwtable
define internal void @glib_auto_cleanup_GStrv(ptr noundef %0) #5 {
  %2 = alloca ptr, align 8
  store ptr %0, ptr %2, align 8
  %3 = load ptr, ptr %2, align 8
  %4 = load ptr, ptr %3, align 8
  %5 = icmp ne ptr %4, null
  br i1 %5, label %6, label %9

6:                                                ; preds = %1
  %7 = load ptr, ptr %2, align 8
  %8 = load ptr, ptr %7, align 8
  call void @g_strfreev(ptr noundef %8)
  br label %9

9:                                                ; preds = %6, %1
  ret void
}

; Function Attrs: nounwind sspstrong uwtable
define i32 @qemu_plugin_install(i64 noundef %0, ptr noundef %1, i32 noundef %2, ptr noundef %3) #0 {
  %5 = alloca i32, align 4
  %6 = alloca i64, align 8
  %7 = alloca ptr, align 8
  %8 = alloca i32, align 4
  %9 = alloca ptr, align 8
  %10 = alloca i32, align 4
  %11 = alloca i32, align 4
  %12 = alloca ptr, align 8
  %13 = alloca %struct.qemu_plugin_u64, align 8
  %14 = alloca ptr, align 8
  %15 = alloca i32, align 4
  %16 = alloca ptr, align 8
  %17 = alloca ptr, align 8
  %18 = alloca ptr, align 8
  %19 = alloca i32, align 4
  %20 = alloca i32, align 4
  store i64 %0, ptr %6, align 8
  store ptr %1, ptr %7, align 8
  store i32 %2, ptr %8, align 4
  store ptr %3, ptr %9, align 8
  call void @llvm.lifetime.start.p0(i64 4, ptr %10) #13
  store i32 0, ptr %10, align 4, !annotation !3
  store i32 0, ptr %10, align 4
  br label %21

21:                                               ; preds = %53, %4
  %22 = load i32, ptr %10, align 4
  %23 = sext i32 %22 to i64
  %24 = icmp ult i64 %23, 4
  br i1 %24, label %25, label %56

25:                                               ; preds = %21
  call void @llvm.lifetime.start.p0(i64 4, ptr %11) #13
  store i32 0, ptr %11, align 4
  br label %26

26:                                               ; preds = %49, %25
  %27 = load i32, ptr %11, align 4
  %28 = load i32, ptr %10, align 4
  %29 = sext i32 %28 to i64
  %30 = getelementptr inbounds [4 x %struct.ClassSelector], ptr @class_tables, i64 0, i64 %29
  %31 = getelementptr inbounds nuw %struct.ClassSelector, ptr %30, i32 0, i32 2
  %32 = load i32, ptr %31, align 8
  %33 = icmp slt i32 %27, %32
  br i1 %33, label %35, label %34

34:                                               ; preds = %26
  call void @llvm.lifetime.end.p0(i64 4, ptr %11) #13
  br label %52

35:                                               ; preds = %26
  call void @llvm.lifetime.start.p0(i64 8, ptr %12) #13
  %36 = call ptr @qemu_plugin_scoreboard_new(i64 noundef 8)
  store ptr %36, ptr %12, align 8
  %37 = load i32, ptr %10, align 4
  %38 = sext i32 %37 to i64
  %39 = getelementptr inbounds [4 x %struct.ClassSelector], ptr @class_tables, i64 0, i64 %38
  %40 = getelementptr inbounds nuw %struct.ClassSelector, ptr %39, i32 0, i32 1
  %41 = load ptr, ptr %40, align 8
  %42 = load i32, ptr %11, align 4
  %43 = sext i32 %42 to i64
  %44 = getelementptr inbounds %struct.InsnClassExecCount, ptr %41, i64 %43
  %45 = getelementptr inbounds nuw %struct.InsnClassExecCount, ptr %44, i32 0, i32 5
  %46 = getelementptr inbounds nuw %struct.qemu_plugin_u64, ptr %13, i32 0, i32 0
  %47 = load ptr, ptr %12, align 8
  store ptr %47, ptr %46, align 8
  %48 = getelementptr inbounds nuw %struct.qemu_plugin_u64, ptr %13, i32 0, i32 1
  store i64 0, ptr %48, align 8
  call void @llvm.memcpy.p0.p0.i64(ptr align 8 %45, ptr align 8 %13, i64 16, i1 false)
  call void @llvm.lifetime.end.p0(i64 8, ptr %12) #13
  br label %49

49:                                               ; preds = %35
  %50 = load i32, ptr %11, align 4
  %51 = add i32 %50, 1
  store i32 %51, ptr %11, align 4
  br label %26, !llvm.loop !4

52:                                               ; preds = %34
  br label %53

53:                                               ; preds = %52
  %54 = load i32, ptr %10, align 4
  %55 = add i32 %54, 1
  store i32 %55, ptr %10, align 4
  br label %21, !llvm.loop !6

56:                                               ; preds = %21
  store i32 0, ptr %10, align 4
  br label %57

57:                                               ; preds = %89, %56
  %58 = load i32, ptr %10, align 4
  %59 = sext i32 %58 to i64
  %60 = icmp ult i64 %59, 4
  br i1 %60, label %61, label %92

61:                                               ; preds = %57
  call void @llvm.lifetime.start.p0(i64 8, ptr %14) #13
  %62 = load i32, ptr %10, align 4
  %63 = sext i32 %62 to i64
  %64 = getelementptr inbounds [4 x %struct.ClassSelector], ptr @class_tables, i64 0, i64 %63
  store ptr %64, ptr %14, align 8
  %65 = load ptr, ptr %14, align 8
  %66 = getelementptr inbounds nuw %struct.ClassSelector, ptr %65, i32 0, i32 0
  %67 = load ptr, ptr %66, align 8
  %68 = icmp ne ptr %67, null
  br i1 %68, label %69, label %78

69:                                               ; preds = %61
  %70 = load ptr, ptr %14, align 8
  %71 = getelementptr inbounds nuw %struct.ClassSelector, ptr %70, i32 0, i32 0
  %72 = load ptr, ptr %71, align 8
  %73 = load ptr, ptr %7, align 8
  %74 = getelementptr inbounds nuw %struct.qemu_info_t, ptr %73, i32 0, i32 0
  %75 = load ptr, ptr %74, align 8
  %76 = call i32 @strcmp(ptr noundef %72, ptr noundef %75) #14
  %77 = icmp eq i32 %76, 0
  br i1 %77, label %78, label %85

78:                                               ; preds = %69, %61
  %79 = load ptr, ptr %14, align 8
  %80 = getelementptr inbounds nuw %struct.ClassSelector, ptr %79, i32 0, i32 1
  %81 = load ptr, ptr %80, align 8
  store ptr %81, ptr @class_table, align 8
  %82 = load ptr, ptr %14, align 8
  %83 = getelementptr inbounds nuw %struct.ClassSelector, ptr %82, i32 0, i32 2
  %84 = load i32, ptr %83, align 8
  store i32 %84, ptr @class_table_sz, align 4
  store i32 8, ptr %15, align 4
  br label %86

85:                                               ; preds = %69
  store i32 0, ptr %15, align 4
  br label %86

86:                                               ; preds = %85, %78
  call void @llvm.lifetime.end.p0(i64 8, ptr %14) #13
  %87 = load i32, ptr %15, align 4
  switch i32 %87, label %204 [
    i32 0, label %88
    i32 8, label %92
  ]

88:                                               ; preds = %86
  br label %89

89:                                               ; preds = %88
  %90 = load i32, ptr %10, align 4
  %91 = add i32 %90, 1
  store i32 %91, ptr %10, align 4
  br label %57, !llvm.loop !7

92:                                               ; preds = %86, %57
  store i32 0, ptr %10, align 4
  br label %93

93:                                               ; preds = %196, %92
  %94 = load i32, ptr %10, align 4
  %95 = load i32, ptr %8, align 4
  %96 = icmp slt i32 %94, %95
  br i1 %96, label %97, label %199

97:                                               ; preds = %93
  call void @llvm.lifetime.start.p0(i64 8, ptr %16) #13
  %98 = load ptr, ptr %9, align 8
  %99 = load i32, ptr %10, align 4
  %100 = sext i32 %99 to i64
  %101 = getelementptr inbounds ptr, ptr %98, i64 %100
  %102 = load ptr, ptr %101, align 8
  store ptr %102, ptr %16, align 8
  call void @llvm.lifetime.start.p0(i64 8, ptr %17) #13
  %103 = load ptr, ptr %16, align 8
  %104 = call ptr @g_strsplit(ptr noundef %103, ptr noundef @.str, i32 noundef -1)
  store ptr %104, ptr %17, align 8
  %105 = load ptr, ptr %17, align 8
  %106 = getelementptr inbounds ptr, ptr %105, i64 0
  %107 = load ptr, ptr %106, align 8
  %108 = call i32 @g_strcmp0(ptr noundef %107, ptr noundef @.str.1)
  %109 = icmp eq i32 %108, 0
  br i1 %109, label %110, label %123

110:                                              ; preds = %97
  %111 = load ptr, ptr %17, align 8
  %112 = getelementptr inbounds ptr, ptr %111, i64 0
  %113 = load ptr, ptr %112, align 8
  %114 = load ptr, ptr %17, align 8
  %115 = getelementptr inbounds ptr, ptr %114, i64 1
  %116 = load ptr, ptr %115, align 8
  %117 = call zeroext i1 @qemu_plugin_bool_parse(ptr noundef %113, ptr noundef %116, ptr noundef @do_inline)
  br i1 %117, label %122, label %118

118:                                              ; preds = %110
  %119 = load ptr, ptr @stderr, align 8
  %120 = load ptr, ptr %16, align 8
  %121 = call i32 (ptr, ptr, ...) @fprintf(ptr noundef %119, ptr noundef @.str.2, ptr noundef %120) #13
  store i32 -1, ptr %5, align 4
  store i32 1, ptr %15, align 4
  br label %193

122:                                              ; preds = %110
  br label %192

123:                                              ; preds = %97
  %124 = load ptr, ptr %17, align 8
  %125 = getelementptr inbounds ptr, ptr %124, i64 0
  %126 = load ptr, ptr %125, align 8
  %127 = call i32 @g_strcmp0(ptr noundef %126, ptr noundef @.str.3)
  %128 = icmp eq i32 %127, 0
  br i1 %128, label %129, label %142

129:                                              ; preds = %123
  %130 = load ptr, ptr %17, align 8
  %131 = getelementptr inbounds ptr, ptr %130, i64 0
  %132 = load ptr, ptr %131, align 8
  %133 = load ptr, ptr %17, align 8
  %134 = getelementptr inbounds ptr, ptr %133, i64 1
  %135 = load ptr, ptr %134, align 8
  %136 = call zeroext i1 @qemu_plugin_bool_parse(ptr noundef %132, ptr noundef %135, ptr noundef @verbose)
  br i1 %136, label %141, label %137

137:                                              ; preds = %129
  %138 = load ptr, ptr @stderr, align 8
  %139 = load ptr, ptr %16, align 8
  %140 = call i32 (ptr, ptr, ...) @fprintf(ptr noundef %138, ptr noundef @.str.2, ptr noundef %139) #13
  store i32 -1, ptr %5, align 4
  store i32 1, ptr %15, align 4
  br label %193

141:                                              ; preds = %129
  br label %191

142:                                              ; preds = %123
  %143 = load ptr, ptr %17, align 8
  %144 = getelementptr inbounds ptr, ptr %143, i64 0
  %145 = load ptr, ptr %144, align 8
  %146 = call i32 @g_strcmp0(ptr noundef %145, ptr noundef @.str.4)
  %147 = icmp eq i32 %146, 0
  br i1 %147, label %148, label %186

148:                                              ; preds = %142
  call void @llvm.lifetime.start.p0(i64 8, ptr %18) #13
  %149 = load ptr, ptr %17, align 8
  %150 = getelementptr inbounds ptr, ptr %149, i64 1
  %151 = load ptr, ptr %150, align 8
  store ptr %151, ptr %18, align 8
  call void @llvm.lifetime.start.p0(i64 4, ptr %19) #13
  store i32 0, ptr %19, align 4, !annotation !3
  call void @llvm.lifetime.start.p0(i64 4, ptr %20) #13
  store i32 1, ptr %20, align 4
  %152 = load ptr, ptr %18, align 8
  %153 = load i8, ptr %152, align 1
  %154 = sext i8 %153 to i32
  %155 = icmp eq i32 %154, 33
  br i1 %155, label %156, label %159

156:                                              ; preds = %148
  store i32 2, ptr %20, align 4
  %157 = load ptr, ptr %18, align 8
  %158 = getelementptr inbounds nuw i8, ptr %157, i32 1
  store ptr %158, ptr %18, align 8
  br label %159

159:                                              ; preds = %156, %148
  store i32 0, ptr %19, align 4
  br label %160

160:                                              ; preds = %182, %159
  %161 = load i32, ptr %19, align 4
  %162 = load i32, ptr @class_table_sz, align 4
  %163 = icmp slt i32 %161, %162
  br i1 %163, label %164, label %185

164:                                              ; preds = %160
  %165 = load ptr, ptr %18, align 8
  %166 = load ptr, ptr @class_table, align 8
  %167 = load i32, ptr %19, align 4
  %168 = sext i32 %167 to i64
  %169 = getelementptr inbounds %struct.InsnClassExecCount, ptr %166, i64 %168
  %170 = getelementptr inbounds nuw %struct.InsnClassExecCount, ptr %169, i32 0, i32 1
  %171 = load ptr, ptr %170, align 8
  %172 = call i32 @strcmp(ptr noundef %165, ptr noundef %171) #14
  %173 = icmp eq i32 %172, 0
  br i1 %173, label %174, label %181

174:                                              ; preds = %164
  %175 = load i32, ptr %20, align 4
  %176 = load ptr, ptr @class_table, align 8
  %177 = load i32, ptr %19, align 4
  %178 = sext i32 %177 to i64
  %179 = getelementptr inbounds %struct.InsnClassExecCount, ptr %176, i64 %178
  %180 = getelementptr inbounds nuw %struct.InsnClassExecCount, ptr %179, i32 0, i32 4
  store i32 %175, ptr %180, align 8
  br label %185

181:                                              ; preds = %164
  br label %182

182:                                              ; preds = %181
  %183 = load i32, ptr %19, align 4
  %184 = add i32 %183, 1
  store i32 %184, ptr %19, align 4
  br label %160, !llvm.loop !8

185:                                              ; preds = %174, %160
  call void @llvm.lifetime.end.p0(i64 4, ptr %20) #13
  call void @llvm.lifetime.end.p0(i64 4, ptr %19) #13
  call void @llvm.lifetime.end.p0(i64 8, ptr %18) #13
  br label %190

186:                                              ; preds = %142
  %187 = load ptr, ptr @stderr, align 8
  %188 = load ptr, ptr %16, align 8
  %189 = call i32 (ptr, ptr, ...) @fprintf(ptr noundef %187, ptr noundef @.str.5, ptr noundef %188) #13
  store i32 -1, ptr %5, align 4
  store i32 1, ptr %15, align 4
  br label %193

190:                                              ; preds = %185
  br label %191

191:                                              ; preds = %190, %141
  br label %192

192:                                              ; preds = %191, %122
  store i32 0, ptr %15, align 4
  br label %193

193:                                              ; preds = %192, %186, %137, %118
  call void @glib_auto_cleanup_GStrv(ptr noundef %17)
  call void @llvm.lifetime.end.p0(i64 8, ptr %17) #13
  call void @llvm.lifetime.end.p0(i64 8, ptr %16) #13
  %194 = load i32, ptr %15, align 4
  switch i32 %194, label %202 [
    i32 0, label %195
  ]

195:                                              ; preds = %193
  br label %196

196:                                              ; preds = %195
  %197 = load i32, ptr %10, align 4
  %198 = add i32 %197, 1
  store i32 %198, ptr %10, align 4
  br label %93, !llvm.loop !9

199:                                              ; preds = %93
  call void @plugin_init()
  %200 = load i64, ptr %6, align 8
  call void @qemu_plugin_register_vcpu_tb_trans_cb(i64 noundef %200, ptr noundef @vcpu_tb_trans)
  %201 = load i64, ptr %6, align 8
  call void @qemu_plugin_register_atexit_cb(i64 noundef %201, ptr noundef @plugin_exit, ptr noundef null)
  store i32 0, ptr %5, align 4
  store i32 1, ptr %15, align 4
  br label %202

202:                                              ; preds = %199, %193
  call void @llvm.lifetime.end.p0(i64 4, ptr %10) #13
  %203 = load i32, ptr %5, align 4
  ret i32 %203

204:                                              ; preds = %86
  unreachable
}