; Function Attrs: nounwind sspstrong uwtable
define range(i32 -1, 1) i32 @qemu_plugin_install(i64 noundef %0, ptr noundef readonly captures(none) %1, i32 noundef %2, ptr noundef readonly captures(none) %3) local_unnamed_addr #0 {
  br label %.preheader59

.preheader59:                                     ; preds = %4, %._crit_edge
  %indvars.iv89 = phi i64 [ 0, %4 ], [ %indvars.iv.next90, %._crit_edge ]
  %5 = getelementptr inbounds nuw [4 x %struct.ClassSelector], ptr @class_tables, i64 0, i64 %indvars.iv89
  %6 = getelementptr inbounds nuw i8, ptr %5, i64 16
  %7 = load i32, ptr %6, align 8
  %8 = icmp sgt i32 %7, 0
  br i1 %8, label %.lr.ph, label %._crit_edge

.lr.ph:                                           ; preds = %.preheader59
  %9 = getelementptr inbounds nuw i8, ptr %5, i64 8
  %wide.trip.count = zext nneg i32 %7 to i64
  br label %11

._crit_edge:                                      ; preds = %11, %.preheader59
  %indvars.iv.next90 = add nuw nsw i64 %indvars.iv89, 1
  %exitcond92.not = icmp eq i64 %indvars.iv.next90, 4
  br i1 %exitcond92.not, label %.preheader.preheader.preheader, label %.preheader59, !llvm.loop !3

.preheader.preheader.preheader:                   ; preds = %._crit_edge
  %10 = load ptr, ptr %1, align 8
  br label %.preheader.preheader

11:                                               ; preds = %.lr.ph, %11
  %indvars.iv = phi i64 [ 0, %.lr.ph ], [ %indvars.iv.next, %11 ]
  %12 = tail call ptr @qemu_plugin_scoreboard_new(i64 noundef 8) #8
  %13 = load ptr, ptr %9, align 8
  %14 = getelementptr inbounds nuw %struct.InsnClassExecCount, ptr %13, i64 %indvars.iv, i32 5
  store ptr %12, ptr %14, align 8
  %.sroa.2.0..sroa_idx = getelementptr inbounds nuw i8, ptr %14, i64 8
  store i64 0, ptr %.sroa.2.0..sroa_idx, align 8
  %indvars.iv.next = add nuw nsw i64 %indvars.iv, 1
  %exitcond.not = icmp eq i64 %indvars.iv.next, %wide.trip.count
  br i1 %exitcond.not, label %._crit_edge, label %11, !llvm.loop !5

.preheader:                                       ; preds = %.preheader.preheader
  %indvars.iv.next94 = add nuw nsw i64 %indvars.iv93125, 1
  %exitcond96 = icmp eq i64 %indvars.iv.next94, 3
  br i1 %exitcond96, label %.loopexit, label %.preheader.preheader

.preheader.preheader:                             ; preds = %.preheader.preheader.preheader, %.preheader
  %indvars.iv93125 = phi i64 [ %indvars.iv.next94, %.preheader ], [ 0, %.preheader.preheader.preheader ]
  %15 = getelementptr inbounds nuw [4 x %struct.ClassSelector], ptr @class_tables, i64 0, i64 %indvars.iv93125
  %16 = load ptr, ptr %15, align 8
  %17 = tail call i32 @strcmp(ptr noundef nonnull dereferenceable(1) %16, ptr noundef nonnull dereferenceable(1) %10) #9
  %18 = icmp eq i32 %17, 0
  br i1 %18, label %.loopexit, label %.preheader

.loopexit:                                        ; preds = %.preheader.preheader, %.preheader
  %.lcssa86 = phi ptr [ getelementptr inbounds nuw (i8, ptr @class_tables, i64 72), %.preheader ], [ %15, %.preheader.preheader ]
  %19 = getelementptr inbounds nuw i8, ptr %.lcssa86, i64 8
  %20 = load ptr, ptr %19, align 8
  store ptr %20, ptr @class_table, align 8
  %21 = getelementptr inbounds nuw i8, ptr %.lcssa86, i64 16
  %22 = load i32, ptr %21, align 8
  store i32 %22, ptr @class_table_sz, align 4
  %23 = icmp sgt i32 %2, 0
  br i1 %23, label %.lr.ph75.preheader, label %._crit_edge76

.lr.ph75.preheader:                               ; preds = %.loopexit
  %wide.trip.count105 = zext nneg i32 %2 to i64
  br label %.lr.ph75

.lr.ph75:                                         ; preds = %.lr.ph75.preheader, %glib_auto_cleanup_GStrv.exit
  %indvars.iv102 = phi i64 [ 0, %.lr.ph75.preheader ], [ %indvars.iv.next103, %glib_auto_cleanup_GStrv.exit ]
  %24 = getelementptr inbounds nuw ptr, ptr %3, i64 %indvars.iv102
  %25 = load ptr, ptr %24, align 8
  %26 = tail call ptr @g_strsplit(ptr noundef %25, ptr noundef nonnull @.str, i32 noundef -1) #8
  %27 = load ptr, ptr %26, align 8
  %28 = tail call i32 @g_strcmp0(ptr noundef %27, ptr noundef nonnull @.str.1) #8
  %29 = icmp eq i32 %28, 0
  %30 = load ptr, ptr %26, align 8
  br i1 %29, label %31, label %35

31:                                               ; preds = %.lr.ph75
  %32 = getelementptr inbounds nuw i8, ptr %26, i64 8
  %33 = load ptr, ptr %32, align 8
  %34 = tail call zeroext i1 @qemu_plugin_bool_parse(ptr noundef %30, ptr noundef %33, ptr noundef nonnull @do_inline) #8
  br i1 %34, label %glib_auto_cleanup_GStrv.exit, label %glib_auto_cleanup_GStrv.exit52

35:                                               ; preds = %.lr.ph75
  %36 = tail call i32 @g_strcmp0(ptr noundef %30, ptr noundef nonnull @.str.3) #8
  %37 = icmp eq i32 %36, 0
  %38 = load ptr, ptr %26, align 8
  br i1 %37, label %39, label %43

39:                                               ; preds = %35
  %40 = getelementptr inbounds nuw i8, ptr %26, i64 8
  %41 = load ptr, ptr %40, align 8
  %42 = tail call zeroext i1 @qemu_plugin_bool_parse(ptr noundef %38, ptr noundef %41, ptr noundef nonnull @verbose) #8
  br i1 %42, label %glib_auto_cleanup_GStrv.exit, label %glib_auto_cleanup_GStrv.exit52

43:                                               ; preds = %35
  %44 = tail call i32 @g_strcmp0(ptr noundef %38, ptr noundef nonnull @.str.4) #8
  %45 = icmp eq i32 %44, 0
  br i1 %45, label %46, label %glib_auto_cleanup_GStrv.exit52

46:                                               ; preds = %43
  %47 = getelementptr inbounds nuw i8, ptr %26, i64 8
  %48 = load ptr, ptr %47, align 8
  %49 = load i8, ptr %48, align 1
  %50 = icmp eq i8 %49, 33
  %spec.select.idx = zext i1 %50 to i64
  %spec.select = getelementptr inbounds nuw i8, ptr %48, i64 %spec.select.idx
  %spec.select49 = select i1 %50, i32 2, i32 1
  %51 = load i32, ptr @class_table_sz, align 4
  %52 = icmp sgt i32 %51, 0
  br i1 %52, label %.lr.ph72, label %glib_auto_cleanup_GStrv.exit

.lr.ph72:                                         ; preds = %46
  %53 = load ptr, ptr @class_table, align 8
  %wide.trip.count100 = zext nneg i32 %51 to i64
  br label %55

54:                                               ; preds = %55
  %indvars.iv.next98 = add nuw nsw i64 %indvars.iv97, 1
  %exitcond101.not = icmp eq i64 %indvars.iv.next98, %wide.trip.count100
  br i1 %exitcond101.not, label %glib_auto_cleanup_GStrv.exit, label %55, !llvm.loop !6

55:                                               ; preds = %.lr.ph72, %54
  %indvars.iv97 = phi i64 [ 0, %.lr.ph72 ], [ %indvars.iv.next98, %54 ]
  %56 = getelementptr inbounds nuw %struct.InsnClassExecCount, ptr %53, i64 %indvars.iv97
  %57 = getelementptr inbounds nuw i8, ptr %56, i64 8
  %58 = load ptr, ptr %57, align 8
  %59 = tail call i32 @strcmp(ptr noundef nonnull dereferenceable(1) %spec.select, ptr noundef nonnull dereferenceable(1) %58) #9
  %60 = icmp eq i32 %59, 0
  br i1 %60, label %61, label %54

61:                                               ; preds = %55
  %62 = getelementptr inbounds nuw i8, ptr %56, i64 24
  store i32 %spec.select49, ptr %62, align 8
  br label %glib_auto_cleanup_GStrv.exit

glib_auto_cleanup_GStrv.exit:                     ; preds = %54, %46, %31, %39, %61
  tail call void @g_strfreev(ptr noundef nonnull %26) #8
  %indvars.iv.next103 = add nuw nsw i64 %indvars.iv102, 1
  %exitcond106.not = icmp eq i64 %indvars.iv.next103, %wide.trip.count105
  br i1 %exitcond106.not, label %._crit_edge76, label %.lr.ph75, !llvm.loop !7

._crit_edge76:                                    ; preds = %glib_auto_cleanup_GStrv.exit, %.loopexit
  %63 = tail call ptr @g_hash_table_new_full(ptr noundef null, ptr noundef nonnull @g_direct_equal, ptr noundef null, ptr noundef nonnull @free_record) #8
  store ptr %63, ptr @insns, align 8
  tail call void @qemu_plugin_register_vcpu_tb_trans_cb(i64 noundef %0, ptr noundef nonnull @vcpu_tb_trans) #8
  tail call void @qemu_plugin_register_atexit_cb(i64 noundef %0, ptr noundef nonnull @plugin_exit, ptr noundef null) #8
  br label %66

glib_auto_cleanup_GStrv.exit52:                   ; preds = %43, %39, %31
  %.str.5.sink = phi ptr [ @.str.2, %31 ], [ @.str.2, %39 ], [ @.str.5, %43 ]
  %64 = load ptr, ptr @stderr, align 8
  %65 = tail call i32 (ptr, ptr, ...) @fprintf(ptr noundef %64, ptr noundef nonnull %.str.5.sink, ptr noundef %25) #10
  tail call void @g_strfreev(ptr noundef nonnull %26) #8
  br label %66

66:                                               ; preds = %glib_auto_cleanup_GStrv.exit52, %._crit_edge76
  %.2 = phi i32 [ 0, %._crit_edge76 ], [ -1, %glib_auto_cleanup_GStrv.exit52 ]
  ret i32 %.2
}